(dp1
S'collector'
p2
S'coverage v3.0'
p3
sS'lines'
p4
(dp5
S'/Users/mlecarme/Developpement/Python/indexator/indexator/filter.py'
p6
(lp7
I4
aI7
aI9
aI11
aI13
aI14
aI16
aI18
aI21
aI26
aI27
aI32
aI33
aI34
aI35
aI37
aI40
aI41
aI42
aI43
aI44
aI45
aI46
aI49
aI50
aI51
aI52
aI55
aI56
aI66
aI68
aI69
aI70
aI71
aI73
aI75
asS'/Users/mlecarme/Developpement/Python/indexator/indexator/index.py'
p8
(lp9
I3
aI4
aI5
aI6
aI7
aI13
aI14
aI16
aI18
aI20
aI22
aI24
aI26
aI28
aI32
aI33
aI34
aI36
aI37
aI38
aI39
aI41
aI42
aI43
aI44
aI45
aI47
aI48
aI49
aI51
aI53
aI54
aI55
aI57
aI58
aI59
aI60
aI62
aI63
aI64
aI65
aI66
aI68
aI70
aI72
aI75
aI76
aI77
aI78
aI81
aI83
aI85
aI88
asS'/Users/mlecarme/Developpement/Python/indexator/indexator/bitset.py'
p10
(lp11
I8
aI9
aI11
aI12
aI13
aI14
aI15
aI17
aI20
aI21
aI24
aI27
aI28
aI29
aI30
aI31
aI32
aI33
aI34
aI36
aI45
aI51
aI52
aI53
aI54
aI55
aI56
aI57
aI58
aI60
aI61
aI62
aI64
aI65
aI66
aI68
aI69
aI70
aI72
aI77
aI80
aI81
aI82
aI83
aI84
aI85
aI86
aI87
aI89
aI102
aI108
aI116
aI117
aI118
aI119
aI120
aI121
aI124
aI125
aI126
aI127
aI128
aI130
aI131
aI132
aI133
aI135
aI136
aI137
aI138
aI141
aI142
aI144
aI145
aI150
aI151
aI152
aI155
aI156
aI157
aI158
aI159
aI160
aI161
aI162
aI163
aI164
aI166
aI167
aI168
aI169
aI170
aI171
aI172
aI173
aI176
aI177
aI178
aI180
aI181
aI183
aI190
aI191
aI203
asS'/Users/mlecarme/Developpement/Python/indexator/indexator/parser.py'
p12
(lp13
I6
aI7
aI9
aI11
aI13
aI15
aI16
aI17
aI18
aI20
aI21
aI24
aI26
aI27
aI28
aI30
aI32
aI34
aI36
aI38
aI40
aI41
aI43
aI45
aI47
aI48
aI49
aI51
aI52
aI53
aI54
aI55
aI57
aI58
aI59
aI60
aI61
aI63
aI64
aI65
aI67
aI68
aI69
aI70
aI71
aI72
aI73
aI74
aI75
aI76
aI77
aI78
aI81
aI82
aI83
aI84
aI85
aI86
aI87
aI88
aI89
aI91
aI97
aI98
aI101
aI103
asS'/Users/mlecarme/Developpement/Python/indexator/indexator/serializator.py'
p14
(lp15
I48
aI35
aI4
aI6
aI7
aI15
aI9
aI10
aI43
aI12
aI45
aI46
aI44
aI16
aI49
aI20
aI14
aI41
aI47
aI61
asS'/Users/mlecarme/Developpement/Python/indexator/indexator/document.py'
p16
(lp17
I4
aI6
aI8
aI9
aI10
aI11
aI12
aI13
aI16
aI17
aI18
aI19
aI21
aI26
aI27
aI28
aI29
aI30
aI31
aI32
aI33
aI34
aI35
aI36
aI39
aI40
aI41
aI42
aI43
aI44
aI45
aI46
aI47
aI48
aI49
aI50
aI52
aI55
aI57
aI60
aI61
aI62
aI63
aI65
aI68
aI69
aI70
aI71
aI72
aI74
aI75
aI76
aI80
aI81
aI82
aI83
aI85
aI89
aI90
aI91
aI92
aI93
aI94
aI95
aI96
aI109
aI111
aI113
aI115
aI116
aI118
aI119
aI123
aI124
aI125
aI126
aI128
aI129
aI130
aI131
aI132
aI133
aI134
aI135
aI136
aI137
aI138
aI139
aI140
aI141
aI142
aI143
aI145
aI149
aI158
aI159
aI160
aI161
aI163
aI184
aI185
aI186
aI187
aI188
aI189
aI190
aI191
aI192
aI193
aI194
aI198
aI199
aI204
aI205
aI206
aI211
aI212
aI214
aI216
aI219
asS'/Users/mlecarme/Developpement/Python/indexator/indexator/compressor.py'
p18
(lp19
I4
aI7
aI9
aI11
aI12
aI13
aI14
aI15
aI18
aI19
aI21
aI22
aI24
aI26
aI27
aI29
aI32
aI33
aI34
aI35
aI36
aI37
aI40
ass.